target datalayout = "e-m:e-p270:32:32-p271:32:32-p272:64:64-i64:64-i128:128-f80:128-n8:16:32:64-S128"
target triple = "x86_64-pc-linux-gnu"

%struct.strbuf = type { i64, i64, ptr }

@.str = private unnamed_addr constant [7 x i8] c"%.*s%s\00", align 1
@.str.1 = private unnamed_addr constant [1 x i8] zeroinitializer, align 1
@the_repository = external global ptr, align 8
@__const.abspath_part_inside_repo.realpath = private unnamed_addr constant %struct.strbuf { i64 0, i64 0, ptr @strbuf_slopbuf }, align 8

; Function Attrs: inlinehint nounwind uwtable
define internal i32 @git_offset_1st_component(ptr noundef %0) #2 {
  %2 = alloca ptr, align 8
  store ptr %0, ptr %2, align 8, !tbaa !4
  %3 = load ptr, ptr %2, align 8, !tbaa !4
  %4 = getelementptr inbounds i8, ptr %3, i64 0
  %5 = load i8, ptr %4, align 1, !tbaa !13
  %6 = sext i8 %5 to i32
  %7 = call i32 @git_is_dir_sep(i32 noundef %6)
  ret i32 %7
}

; Function Attrs: inlinehint nounwind uwtable
define internal ptr @precompose_string_if_needed(ptr noundef %0) #2 {
  %2 = alloca ptr, align 8
  store ptr %0, ptr %2, align 8, !tbaa !4
  %3 = load ptr, ptr %2, align 8, !tbaa !4
  ret ptr %3
}

; Function Attrs: inlinehint nounwind uwtable
define internal i32 @git_has_dos_drive_prefix(ptr noundef %0) #2 {
  %2 = alloca ptr, align 8
  store ptr %0, ptr %2, align 8, !tbaa !4
  ret i32 0
}

; Function Attrs: inlinehint nounwind uwtable
define internal i32 @git_is_dir_sep(i32 noundef %0) #2 {
  %2 = alloca i32, align 4
  store i32 %0, ptr %2, align 4, !tbaa !9
  %3 = load i32, ptr %2, align 4, !tbaa !9
  %4 = icmp eq i32 %3, 47
  %5 = zext i1 %4 to i32
  ret i32 %5
}

; Function Attrs: nounwind uwtable
define internal i32 @abspath_part_inside_repo(ptr noundef %0) #0 {
  %2 = alloca i32, align 4
  %3 = alloca ptr, align 8
  %4 = alloca i64, align 8
  %5 = alloca i64, align 8
  %6 = alloca ptr, align 8
  %7 = alloca i32, align 4
  %8 = alloca ptr, align 8
  %9 = alloca %struct.strbuf, align 8
  %10 = alloca i32, align 4
  store ptr %0, ptr %3, align 8, !tbaa !4
  call void @llvm.lifetime.start.p0(i64 8, ptr %4) #13
  call void @llvm.lifetime.start.p0(i64 8, ptr %5) #13
  call void @llvm.lifetime.start.p0(i64 8, ptr %6) #13
  call void @llvm.lifetime.start.p0(i64 4, ptr %7) #13
  call void @llvm.lifetime.start.p0(i64 8, ptr %8) #13
  %11 = load ptr, ptr @the_repository, align 8, !tbaa !14
  %12 = call ptr @repo_get_work_tree(ptr noundef %11)
  %13 = call ptr @precompose_string_if_needed(ptr noundef %12)
  store ptr %13, ptr %8, align 8, !tbaa !4
  call void @llvm.lifetime.start.p0(i64 24, ptr %9) #13
  call void @llvm.memcpy.p0.p0.i64(ptr align 8 %9, ptr align 8 @__const.abspath_part_inside_repo.realpath, i64 24, i1 false)
  %14 = load ptr, ptr %8, align 8, !tbaa !4
  %15 = icmp ne ptr %14, null
  br i1 %15, label %17, label %16

16:                                               ; preds = %1
  store i32 -1, ptr %2, align 4
  store i32 1, ptr %10, align 4
  br label %128

17:                                               ; preds = %1
  %18 = load ptr, ptr %8, align 8, !tbaa !4
  %19 = call i64 @strlen(ptr noundef %18) #14
  store i64 %19, ptr %5, align 8, !tbaa !16
  %20 = load ptr, ptr %3, align 8, !tbaa !4
  %21 = call i64 @strlen(ptr noundef %20) #14
  store i64 %21, ptr %4, align 8, !tbaa !16
  %22 = load ptr, ptr %3, align 8, !tbaa !4
  %23 = call i32 @git_offset_1st_component(ptr noundef %22)
  store i32 %23, ptr %7, align 4, !tbaa !9
  %24 = load i64, ptr %5, align 8, !tbaa !16
  %25 = load i64, ptr %4, align 8, !tbaa !16
  %26 = icmp ule i64 %24, %25
  br i1 %26, label %27, label %77

27:                                               ; preds = %17
  %28 = load ptr, ptr %3, align 8, !tbaa !4
  %29 = load ptr, ptr %8, align 8, !tbaa !4
  %30 = load i64, ptr %5, align 8, !tbaa !16
  %31 = call i32 @git_fspathncmp(ptr noundef %28, ptr noundef %29, i64 noundef %30)
  %32 = icmp ne i32 %31, 0
  br i1 %32, label %77, label %33

33:                                               ; preds = %27
  %34 = load ptr, ptr %3, align 8, !tbaa !4
  %35 = load i64, ptr %5, align 8, !tbaa !16
  %36 = getelementptr inbounds nuw i8, ptr %34, i64 %35
  %37 = load i8, ptr %36, align 1, !tbaa !13
  %38 = sext i8 %37 to i32
  %39 = icmp eq i32 %38, 47
  br i1 %39, label %40, label %49

40:                                               ; preds = %33
  %41 = load ptr, ptr %3, align 8, !tbaa !4
  %42 = load ptr, ptr %3, align 8, !tbaa !4
  %43 = load i64, ptr %5, align 8, !tbaa !16
  %44 = getelementptr inbounds nuw i8, ptr %42, i64 %43
  %45 = getelementptr inbounds i8, ptr %44, i64 1
  %46 = load i64, ptr %4, align 8, !tbaa !16
  %47 = load i64, ptr %5, align 8, !tbaa !16
  %48 = sub i64 %46, %47
  call void @llvm.memmove.p0.p0.i64(ptr align 1 %41, ptr align 1 %45, i64 %48, i1 false)
  store i32 0, ptr %2, align 4
  store i32 1, ptr %10, align 4
  br label %128

49:                                               ; preds = %33
  %50 = load ptr, ptr %3, align 8, !tbaa !4
  %51 = load i64, ptr %5, align 8, !tbaa !16
  %52 = sub i64 %51, 1
  %53 = getelementptr inbounds nuw i8, ptr %50, i64 %52
  %54 = load i8, ptr %53, align 1, !tbaa !13
  %55 = sext i8 %54 to i32
  %56 = icmp eq i32 %55, 47
  br i1 %56, label %64, label %57

57:                                               ; preds = %49
  %58 = load ptr, ptr %3, align 8, !tbaa !4
  %59 = load i64, ptr %5, align 8, !tbaa !16
  %60 = getelementptr inbounds nuw i8, ptr %58, i64 %59
  %61 = load i8, ptr %60, align 1, !tbaa !13
  %62 = sext i8 %61 to i32
  %63 = icmp eq i32 %62, 0
  br i1 %63, label %64, label %73

64:                                               ; preds = %57, %49
  %65 = load ptr, ptr %3, align 8, !tbaa !4
  %66 = load ptr, ptr %3, align 8, !tbaa !4
  %67 = load i64, ptr %5, align 8, !tbaa !16
  %68 = getelementptr inbounds nuw i8, ptr %66, i64 %67
  %69 = load i64, ptr %4, align 8, !tbaa !16
  %70 = load i64, ptr %5, align 8, !tbaa !16
  %71 = sub i64 %69, %70
  %72 = add i64 %71, 1
  call void @llvm.memmove.p0.p0.i64(ptr align 1 %65, ptr align 1 %68, i64 %72, i1 false)
  store i32 0, ptr %2, align 4
  store i32 1, ptr %10, align 4
  br label %128

73:                                               ; preds = %57
  br label %74

74:                                               ; preds = %73
  %75 = load i64, ptr %5, align 8, !tbaa !16
  %76 = trunc i64 %75 to i32
  store i32 %76, ptr %7, align 4, !tbaa !9
  br label %77

77:                                               ; preds = %74, %27, %17
  %78 = load ptr, ptr %3, align 8, !tbaa !4
  store ptr %78, ptr %6, align 8, !tbaa !4
  %79 = load i32, ptr %7, align 4, !tbaa !9
  %80 = load ptr, ptr %3, align 8, !tbaa !4
  %81 = sext i32 %79 to i64
  %82 = getelementptr inbounds i8, ptr %80, i64 %81
  store ptr %82, ptr %3, align 8, !tbaa !4
  br label %83

83:                                               ; preds = %116, %77
  %84 = load ptr, ptr %3, align 8, !tbaa !4
  %85 = load i8, ptr %84, align 1, !tbaa !13
  %86 = icmp ne i8 %85, 0
  br i1 %86, label %87, label %117

87:                                               ; preds = %83
  %88 = load ptr, ptr %3, align 8, !tbaa !4
  %89 = getelementptr inbounds nuw i8, ptr %88, i32 1
  store ptr %89, ptr %3, align 8, !tbaa !4
  %90 = load ptr, ptr %3, align 8, !tbaa !4
  %91 = load i8, ptr %90, align 1, !tbaa !13
  %92 = sext i8 %91 to i32
  %93 = icmp eq i32 %92, 47
  br i1 %93, label %94, label %116

94:                                               ; preds = %87
  %95 = load ptr, ptr %3, align 8, !tbaa !4
  store i8 0, ptr %95, align 1, !tbaa !13
  %96 = load ptr, ptr %6, align 8, !tbaa !4
  %97 = call ptr @strbuf_realpath(ptr noundef %9, ptr noundef %96, i32 noundef 1)
  %98 = getelementptr inbounds nuw %struct.strbuf, ptr %9, i32 0, i32 2
  %99 = load ptr, ptr %98, align 8, !tbaa !18
  %100 = load ptr, ptr %8, align 8, !tbaa !4
  %101 = call i32 @git_fspathcmp(ptr noundef %99, ptr noundef %100)
  %102 = icmp eq i32 %101, 0
  br i1 %102, label %103, label %114

103:                                              ; preds = %94
  %104 = load ptr, ptr %6, align 8, !tbaa !4
  %105 = load ptr, ptr %3, align 8, !tbaa !4
  %106 = getelementptr inbounds i8, ptr %105, i64 1
  %107 = load i64, ptr %4, align 8, !tbaa !16
  %108 = load ptr, ptr %3, align 8, !tbaa !4
  %109 = load ptr, ptr %6, align 8, !tbaa !4
  %110 = ptrtoint ptr %108 to i64
  %111 = ptrtoint ptr %109 to i64
  %112 = sub i64 %110, %111
  %113 = sub i64 %107, %112
  call void @llvm.memmove.p0.p0.i64(ptr align 1 %104, ptr align 1 %106, i64 %113, i1 false)
  call void @strbuf_release(ptr noundef %9)
  store i32 0, ptr %2, align 4
  store i32 1, ptr %10, align 4
  br label %128

114:                                              ; preds = %94
  %115 = load ptr, ptr %3, align 8, !tbaa !4
  store i8 47, ptr %115, align 1, !tbaa !13
  br label %116

116:                                              ; preds = %114, %87
  br label %83, !llvm.loop !20

117:                                              ; preds = %83
  %118 = load ptr, ptr %6, align 8, !tbaa !4
  %119 = call ptr @strbuf_realpath(ptr noundef %9, ptr noundef %118, i32 noundef 1)
  %120 = getelementptr inbounds nuw %struct.strbuf, ptr %9, i32 0, i32 2
  %121 = load ptr, ptr %120, align 8, !tbaa !18
  %122 = load ptr, ptr %8, align 8, !tbaa !4
  %123 = call i32 @git_fspathcmp(ptr noundef %121, ptr noundef %122)
  %124 = icmp eq i32 %123, 0
  br i1 %124, label %125, label %127

125:                                              ; preds = %117
  %126 = load ptr, ptr %6, align 8, !tbaa !4
  store i8 0, ptr %126, align 1, !tbaa !13
  call void @strbuf_release(ptr noundef %9)
  store i32 0, ptr %2, align 4
  store i32 1, ptr %10, align 4
  br label %128

127:                                              ; preds = %117
  call void @strbuf_release(ptr noundef %9)
  store i32 -1, ptr %2, align 4
  store i32 1, ptr %10, align 4
  br label %128

128:                                              ; preds = %127, %125, %103, %64, %40, %16
  call void @llvm.lifetime.end.p0(i64 24, ptr %9) #13
  call void @llvm.lifetime.end.p0(i64 8, ptr %8) #13
  call void @llvm.lifetime.end.p0(i64 4, ptr %7) #13
  call void @llvm.lifetime.end.p0(i64 8, ptr %6) #13
  call void @llvm.lifetime.end.p0(i64 8, ptr %5) #13
  call void @llvm.lifetime.end.p0(i64 8, ptr %4) #13
  %129 = load i32, ptr %2, align 4
  ret i32 %129
}

; Function Attrs: inlinehint nounwind uwtable
define internal i32 @is_absolute_path(ptr noundef %0) #2 {
  %2 = alloca ptr, align 8
  store ptr %0, ptr %2, align 8, !tbaa !4
  %3 = load ptr, ptr %2, align 8, !tbaa !4
  %4 = getelementptr inbounds i8, ptr %3, i64 0
  %5 = load i8, ptr %4, align 1, !tbaa !13
  %6 = sext i8 %5 to i32
  %7 = call i32 @git_is_dir_sep(i32 noundef %6)
  %8 = icmp ne i32 %7, 0
  br i1 %8, label %13, label %9

9:                                                ; preds = %1
  %10 = load ptr, ptr %2, align 8, !tbaa !4
  %11 = call i32 @git_has_dos_drive_prefix(ptr noundef %10)
  %12 = icmp ne i32 %11, 0
  br label %13

13:                                               ; preds = %9, %1
  %14 = phi i1 [ true, %1 ], [ %12, %9 ]
  %15 = zext i1 %14 to i32
  ret i32 %15
}

; Function Attrs: nounwind uwtable
define dso_local ptr @prefix_path_gently(ptr noundef %0, i32 noundef %1, ptr noundef %2, ptr noundef %3) #0 {
  %5 = alloca ptr, align 8
  %6 = alloca ptr, align 8
  %7 = alloca i32, align 4
  %8 = alloca ptr, align 8
  %9 = alloca ptr, align 8
  %10 = alloca ptr, align 8
  %11 = alloca ptr, align 8
  %12 = alloca i32, align 4
  store ptr %0, ptr %6, align 8, !tbaa !4
  store i32 %1, ptr %7, align 4, !tbaa !9
  store ptr %2, ptr %8, align 8, !tbaa !11
  store ptr %3, ptr %9, align 8, !tbaa !4
  call void @llvm.lifetime.start.p0(i64 8, ptr %10) #13
  %13 = load ptr, ptr %9, align 8, !tbaa !4
  store ptr %13, ptr %10, align 8, !tbaa !4
  call void @llvm.lifetime.start.p0(i64 8, ptr %11) #13
  %14 = load ptr, ptr %10, align 8, !tbaa !4
  %15 = call i32 @is_absolute_path(ptr noundef %14)
  %16 = icmp ne i32 %15, 0
  br i1 %16, label %17, label %40

17:                                               ; preds = %4
  %18 = load ptr, ptr %9, align 8, !tbaa !4
  %19 = call i64 @strlen(ptr noundef %18) #14
  %20 = call ptr @xmallocz(i64 noundef %19)
  store ptr %20, ptr %11, align 8, !tbaa !4
  %21 = load ptr, ptr %8, align 8, !tbaa !11
  %22 = icmp ne ptr %21, null
  br i1 %22, label %23, label %25

23:                                               ; preds = %17
  %24 = load ptr, ptr %8, align 8, !tbaa !11
  store i32 0, ptr %24, align 4, !tbaa !9
  br label %25

25:                                               ; preds = %23, %17
  %26 = load ptr, ptr %11, align 8, !tbaa !4
  %27 = load ptr, ptr %9, align 8, !tbaa !4
  %28 = load ptr, ptr %8, align 8, !tbaa !11
  %29 = call i32 @normalize_path_copy_len(ptr noundef %26, ptr noundef %27, ptr noundef %28)
  %30 = icmp ne i32 %29, 0
  br i1 %30, label %31, label %33

31:                                               ; preds = %25
  %32 = load ptr, ptr %11, align 8, !tbaa !4
  call void @free(ptr noundef %32) #13
  store ptr null, ptr %5, align 8
  store i32 1, ptr %12, align 4
  br label %67

33:                                               ; preds = %25
  %34 = load ptr, ptr %11, align 8, !tbaa !4
  %35 = call i32 @abspath_part_inside_repo(ptr noundef %34)
  %36 = icmp ne i32 %35, 0
  br i1 %36, label %37, label %39

37:                                               ; preds = %33
  %38 = load ptr, ptr %11, align 8, !tbaa !4
  call void @free(ptr noundef %38) #13
  store ptr null, ptr %5, align 8
  store i32 1, ptr %12, align 4
  br label %67

39:                                               ; preds = %33
  br label %65

40:                                               ; preds = %4
  %41 = load i32, ptr %7, align 4, !tbaa !9
  %42 = load i32, ptr %7, align 4, !tbaa !9
  %43 = icmp ne i32 %42, 0
  br i1 %43, label %44, label %46

44:                                               ; preds = %40
  %45 = load ptr, ptr %6, align 8, !tbaa !4
  br label %47

46:                                               ; preds = %40
  br label %47

47:                                               ; preds = %46, %44
  %48 = phi ptr [ %45, %44 ], [ @.str.1, %46 ]
  %49 = load ptr, ptr %9, align 8, !tbaa !4
  %50 = call ptr (ptr, ...) @xstrfmt(ptr noundef @.str, i32 noundef %41, ptr noundef %48, ptr noundef %49)
  store ptr %50, ptr %11, align 8, !tbaa !4
  %51 = load ptr, ptr %8, align 8, !tbaa !11
  %52 = icmp ne ptr %51, null
  br i1 %52, label %53, label %56

53:                                               ; preds = %47
  %54 = load i32, ptr %7, align 4, !tbaa !9
  %55 = load ptr, ptr %8, align 8, !tbaa !11
  store i32 %54, ptr %55, align 4, !tbaa !9
  br label %56

56:                                               ; preds = %53, %47
  %57 = load ptr, ptr %11, align 8, !tbaa !4
  %58 = load ptr, ptr %11, align 8, !tbaa !4
  %59 = load ptr, ptr %8, align 8, !tbaa !11
  %60 = call i32 @normalize_path_copy_len(ptr noundef %57, ptr noundef %58, ptr noundef %59)
  %61 = icmp ne i32 %60, 0
  br i1 %61, label %62, label %64

62:                                               ; preds = %56
  %63 = load ptr, ptr %11, align 8, !tbaa !4
  call void @free(ptr noundef %63) #13
  store ptr null, ptr %5, align 8
  store i32 1, ptr %12, align 4
  br label %67

64:                                               ; preds = %56
  br label %65

65:                                               ; preds = %64, %39
  %66 = load ptr, ptr %11, align 8, !tbaa !4
  store ptr %66, ptr %5, align 8
  store i32 1, ptr %12, align 4
  br label %67

67:                                               ; preds = %65, %62, %37, %31
  call void @llvm.lifetime.end.p0(i64 8, ptr %11) #13
  call void @llvm.lifetime.end.p0(i64 8, ptr %10) #13
  %68 = load ptr, ptr %5, align 8
  ret ptr %68
}