; Function Attrs: nounwind uwtable
define dso_local ptr @prefix_path_gently(ptr noundef %0, i32 noundef %1, ptr noundef %2, ptr noundef %3) local_unnamed_addr #0 {
  %5 = alloca %struct.strbuf, align 8
  %.val = load i8, ptr %3, align 1, !tbaa !4
  %.not = icmp eq i8 %.val, 47
  br i1 %.not, label %6, label %65

6:                                                ; preds = %4
  %7 = tail call i64 @strlen(ptr noundef nonnull dereferenceable(1) %3) #24
  %8 = tail call ptr @xmallocz(i64 noundef %7) #25
  %.not28 = icmp eq ptr %2, null
  br i1 %.not28, label %10, label %9

9:                                                ; preds = %6
  store i32 0, ptr %2, align 4, !tbaa !7
  br label %10

10:                                               ; preds = %9, %6
  %11 = tail call i32 @normalize_path_copy_len(ptr noundef %8, ptr noundef nonnull %3, ptr noundef %2) #25
  %.not29 = icmp eq i32 %11, 0
  br i1 %.not29, label %13, label %12

12:                                               ; preds = %10
  tail call void @free(ptr noundef %8) #25
  br label %72

13:                                               ; preds = %10
  %14 = load ptr, ptr @the_repository, align 8, !tbaa !9
  %15 = tail call ptr @repo_get_work_tree(ptr noundef %14) #25
  call void @llvm.lifetime.start.p0(i64 24, ptr nonnull %5) #25
  call void @llvm.memcpy.p0.p0.i64(ptr noundef nonnull align 8 dereferenceable(24) %5, ptr noundef nonnull align 8 dereferenceable(24) @__const.create_object_directory.path, i64 24, i1 false)
  %.not.i = icmp eq ptr %15, null
  br i1 %.not.i, label %64, label %16

16:                                               ; preds = %13
  %17 = tail call i64 @strlen(ptr noundef nonnull dereferenceable(1) %15) #24
  %18 = tail call i64 @strlen(ptr noundef nonnull dereferenceable(1) %8) #24
  %.val.i = load i8, ptr %8, align 1, !tbaa !4
  %19 = icmp eq i8 %.val.i, 47
  %20 = zext i1 %19 to i32
  %.not50.i = icmp ugt i64 %17, %18
  br i1 %.not50.i, label %39, label %21

21:                                               ; preds = %16
  %22 = tail call i32 @git_fspathncmp(ptr noundef nonnull %8, ptr noundef nonnull %15, i64 noundef %17) #25
  %.not51.i = icmp eq i32 %22, 0
  br i1 %.not51.i, label %23, label %39

23:                                               ; preds = %21
  %24 = getelementptr inbounds nuw i8, ptr %8, i64 %17
  %25 = load i8, ptr %24, align 1, !tbaa !4
  %26 = icmp eq i8 %25, 47
  br i1 %26, label %27, label %30

27:                                               ; preds = %23
  %28 = getelementptr inbounds nuw i8, ptr %24, i64 1
  %29 = sub i64 %18, %17
  tail call void @llvm.memmove.p0.p0.i64(ptr nonnull align 1 %8, ptr nonnull align 1 %28, i64 %29, i1 false)
  br label %abspath_part_inside_repo.exit.thread

30:                                               ; preds = %23
  %31 = getelementptr i8, ptr %24, i64 -1
  %32 = load i8, ptr %31, align 1, !tbaa !4
  %33 = icmp eq i8 %32, 47
  %34 = icmp eq i8 %25, 0
  %or.cond.i = or i1 %34, %33
  br i1 %or.cond.i, label %35, label %37

35:                                               ; preds = %30
  %reass.sub = sub i64 %18, %17
  %36 = add i64 %reass.sub, 1
  tail call void @llvm.memmove.p0.p0.i64(ptr nonnull align 1 %8, ptr nonnull align 1 %24, i64 %36, i1 false)
  br label %abspath_part_inside_repo.exit.thread

37:                                               ; preds = %30
  %38 = trunc i64 %17 to i32
  br label %39

39:                                               ; preds = %37, %21, %16
  %.044.i = phi i32 [ %20, %21 ], [ %38, %37 ], [ %20, %16 ]
  %40 = sext i32 %.044.i to i64
  %41 = getelementptr inbounds i8, ptr %8, i64 %40
  %42 = load i8, ptr %41, align 1, !tbaa !4
  %.not5256.i = icmp eq i8 %42, 0
  br i1 %.not5256.i, label %._crit_edge.i, label %.lr.ph.i

.lr.ph.i:                                         ; preds = %39
  %43 = getelementptr inbounds nuw i8, ptr %5, i64 16
  br label %.backedge

.backedge:                                        ; preds = %.backedge.backedge, %.lr.ph.i
  %.04557.i = phi ptr [ %41, %.lr.ph.i ], [ %44, %.backedge.backedge ]
  %44 = getelementptr inbounds nuw i8, ptr %.04557.i, i64 1
  %45 = load i8, ptr %44, align 1, !tbaa !4
  switch i8 %45, label %.backedge.backedge [
    i8 47, label %46
    i8 0, label %._crit_edge.i
  ]

.backedge.backedge:                               ; preds = %.backedge, %56
  br label %.backedge, !llvm.loop !12

46:                                               ; preds = %.backedge
  store i8 0, ptr %44, align 1, !tbaa !4
  %47 = call ptr @strbuf_realpath(ptr noundef nonnull %5, ptr noundef nonnull %8, i32 noundef 1) #25
  %48 = load ptr, ptr %43, align 8, !tbaa !14
  %49 = call i32 @git_fspathcmp(ptr noundef %48, ptr noundef nonnull %15) #25
  %50 = icmp eq i32 %49, 0
  br i1 %50, label %51, label %56

51:                                               ; preds = %46
  %52 = getelementptr inbounds nuw i8, ptr %.04557.i, i64 2
  %53 = ptrtoint ptr %44 to i64
  %54 = ptrtoint ptr %8 to i64
  %.neg.i = add i64 %18, %54
  %55 = sub i64 %.neg.i, %53
  call void @llvm.memmove.p0.p0.i64(ptr nonnull align 1 %8, ptr nonnull align 1 %52, i64 %55, i1 false)
  call void @strbuf_release(ptr noundef nonnull %5) #25
  br label %abspath_part_inside_repo.exit.thread

56:                                               ; preds = %46
  store i8 47, ptr %44, align 1, !tbaa !4
  br label %.backedge.backedge

._crit_edge.i:                                    ; preds = %.backedge, %39
  %57 = call ptr @strbuf_realpath(ptr noundef nonnull %5, ptr noundef nonnull %8, i32 noundef 1) #25
  %58 = getelementptr inbounds nuw i8, ptr %5, i64 16
  %59 = load ptr, ptr %58, align 8, !tbaa !14
  %60 = call i32 @git_fspathcmp(ptr noundef %59, ptr noundef nonnull %15) #25
  %61 = icmp eq i32 %60, 0
  br i1 %61, label %62, label %63

62:                                               ; preds = %._crit_edge.i
  store i8 0, ptr %8, align 1, !tbaa !4
  call void @strbuf_release(ptr noundef nonnull %5) #25
  br label %abspath_part_inside_repo.exit.thread

63:                                               ; preds = %._crit_edge.i
  call void @strbuf_release(ptr noundef nonnull %5) #25
  br label %64

abspath_part_inside_repo.exit.thread:             ; preds = %51, %62, %27, %35
  call void @llvm.lifetime.end.p0(i64 24, ptr nonnull %5) #25
  br label %72

64:                                               ; preds = %63, %13
  call void @llvm.lifetime.end.p0(i64 24, ptr nonnull %5) #25
  call void @free(ptr noundef %8) #25
  br label %72

65:                                               ; preds = %4
  %.not25 = icmp eq i32 %1, 0
  %66 = select i1 %.not25, ptr @.str.1, ptr %0
  %67 = tail call ptr (ptr, ...) @xstrfmt(ptr noundef nonnull @.str, i32 noundef %1, ptr noundef %66, ptr noundef nonnull %3) #25
  %.not26 = icmp eq ptr %2, null
  br i1 %.not26, label %69, label %68

68:                                               ; preds = %65
  store i32 %1, ptr %2, align 4, !tbaa !7
  br label %69

69:                                               ; preds = %68, %65
  %70 = tail call i32 @normalize_path_copy_len(ptr noundef %67, ptr noundef %67, ptr noundef %2) #25
  %.not27 = icmp eq i32 %70, 0
  br i1 %.not27, label %72, label %71

71:                                               ; preds = %69
  tail call void @free(ptr noundef %67) #25
  br label %72

72:                                               ; preds = %abspath_part_inside_repo.exit.thread, %69, %71, %64, %12
  %.023 = phi ptr [ null, %12 ], [ null, %64 ], [ null, %71 ], [ %67, %69 ], [ %8, %abspath_part_inside_repo.exit.thread ]
  ret ptr %.023
}